; Function Attrs: nounwind uwtable
define internal i32 @lsarpc_dissect_lsa_OpenPolicy_request(ptr noundef %0, i32 noundef %1, ptr noundef %2, ptr noundef %3, ptr noundef initializes((80, 88)) %4, ptr noundef %5) #0 {
  %7 = getelementptr inbounds nuw i8, ptr %4, i64 80
  store ptr @.str.1011, ptr %7, align 8
  %8 = load i32, ptr @hf_lsarpc_lsa_OpenPolicy_system_name, align 4
  %9 = tail call i32 @dissect_ndr_toplevel_pointer(ptr noundef %0, i32 noundef %1, ptr noundef %2, ptr noundef %3, ptr noundef %4, ptr noundef %5, ptr noundef nonnull @lsarpc_dissect_element_lsa_OpenPolicy_system_name_, i32 noundef 2, ptr noundef nonnull @.str.1145, i32 noundef %8) #5
  %10 = tail call i32 @dissect_deferred_pointers(ptr noundef %2, ptr noundef %0, i32 noundef %9, ptr noundef %4, ptr noundef %5) #5
  %11 = load i32, ptr @hf_lsarpc_lsa_OpenPolicy_attr, align 4
  %12 = tail call i32 @dissect_ndr_toplevel_pointer(ptr noundef %0, i32 noundef %10, ptr noundef %2, ptr noundef %3, ptr noundef %4, ptr noundef %5, ptr noundef nonnull @lsarpc_dissect_element_lsa_OpenPolicy_attr_, i32 noundef 1, ptr noundef nonnull @.str.1146, i32 noundef %11) #5
  %13 = tail call i32 @dissect_deferred_pointers(ptr noundef %2, ptr noundef %0, i32 noundef %12, ptr noundef %4, ptr noundef %5) #5
  %14 = load i32, ptr @hf_lsarpc_policy_access_mask, align 4
  %15 = tail call i32 @dissect_nt_access_mask(ptr noundef %0, i32 noundef %13, ptr noundef %2, ptr noundef %3, ptr noundef %4, ptr noundef %5, i32 noundef %14, ptr noundef nonnull @lsarpc_policy_access_mask_info, ptr noundef null) #5
  %16 = tail call i32 @dissect_deferred_pointers(ptr noundef %2, ptr noundef %0, i32 noundef %15, ptr noundef %4, ptr noundef %5) #5
  ret i32 %16
}